; Function Attrs: nounwind uwtable
define internal noundef i32 @_structmodule_clear(ptr noundef readonly captures(none) %0) #0 {
  %2 = getelementptr i8, ptr %0, i64 32
  %.val = load ptr, ptr %2, align 8, !tbaa !3
  %.not = icmp eq ptr %.val, null
  br i1 %.not, label %Py_DECREF.exit35, label %3

3:                                                ; preds = %1
  %4 = load ptr, ptr %.val, align 8, !tbaa !17
  %.not26 = icmp eq ptr %4, null
  br i1 %.not26, label %Py_DECREF.exit, label %5

5:                                                ; preds = %3
  store ptr null, ptr %.val, align 8, !tbaa !17
  %6 = load i32, ptr %4, align 8, !tbaa !18
  %.not.i = icmp sgt i32 %6, -1
  br i1 %.not.i, label %7, label %Py_DECREF.exit

7:                                                ; preds = %5
  %8 = add nsw i32 %6, -1
  store i32 %8, ptr %4, align 8, !tbaa !18
  %9 = icmp eq i32 %8, 0
  br i1 %9, label %10, label %Py_DECREF.exit

10:                                               ; preds = %7
  tail call void @_Py_Dealloc(ptr noundef nonnull %4) #7
  br label %Py_DECREF.exit

Py_DECREF.exit:                                   ; preds = %10, %7, %5, %3
  %11 = getelementptr inbounds nuw i8, ptr %.val, i64 8
  %12 = load ptr, ptr %11, align 8, !tbaa !17
  %.not27 = icmp eq ptr %12, null
  br i1 %.not27, label %Py_DECREF.exit31, label %13

13:                                               ; preds = %Py_DECREF.exit
  store ptr null, ptr %11, align 8, !tbaa !17
  %14 = load i32, ptr %12, align 8, !tbaa !18
  %.not.i30 = icmp sgt i32 %14, -1
  br i1 %.not.i30, label %15, label %Py_DECREF.exit31

15:                                               ; preds = %13
  %16 = add nsw i32 %14, -1
  store i32 %16, ptr %12, align 8, !tbaa !18
  %17 = icmp eq i32 %16, 0
  br i1 %17, label %18, label %Py_DECREF.exit31

18:                                               ; preds = %15
  tail call void @_Py_Dealloc(ptr noundef nonnull %12) #7
  br label %Py_DECREF.exit31

Py_DECREF.exit31:                                 ; preds = %18, %15, %13, %Py_DECREF.exit
  %19 = getelementptr inbounds nuw i8, ptr %.val, i64 16
  %20 = load ptr, ptr %19, align 8, !tbaa !17
  %.not28 = icmp eq ptr %20, null
  br i1 %.not28, label %Py_DECREF.exit33, label %21

21:                                               ; preds = %Py_DECREF.exit31
  store ptr null, ptr %19, align 8, !tbaa !17
  %22 = load i32, ptr %20, align 8, !tbaa !18
  %.not.i32 = icmp sgt i32 %22, -1
  br i1 %.not.i32, label %23, label %Py_DECREF.exit33

23:                                               ; preds = %21
  %24 = add nsw i32 %22, -1
  store i32 %24, ptr %20, align 8, !tbaa !18
  %25 = icmp eq i32 %24, 0
  br i1 %25, label %26, label %Py_DECREF.exit33

26:                                               ; preds = %23
  tail call void @_Py_Dealloc(ptr noundef nonnull %20) #7
  br label %Py_DECREF.exit33

Py_DECREF.exit33:                                 ; preds = %26, %23, %21, %Py_DECREF.exit31
  %27 = getelementptr inbounds nuw i8, ptr %.val, i64 24
  %28 = load ptr, ptr %27, align 8, !tbaa !17
  %.not29 = icmp eq ptr %28, null
  br i1 %.not29, label %Py_DECREF.exit35, label %29

29:                                               ; preds = %Py_DECREF.exit33
  store ptr null, ptr %27, align 8, !tbaa !17
  %30 = load i32, ptr %28, align 8, !tbaa !18
  %.not.i34 = icmp sgt i32 %30, -1
  br i1 %.not.i34, label %31, label %Py_DECREF.exit35

31:                                               ; preds = %29
  %32 = add nsw i32 %30, -1
  store i32 %32, ptr %28, align 8, !tbaa !18
  %33 = icmp eq i32 %32, 0
  br i1 %33, label %34, label %Py_DECREF.exit35

34:                                               ; preds = %31
  tail call void @_Py_Dealloc(ptr noundef nonnull %28) #7
  br label %Py_DECREF.exit35

Py_DECREF.exit35:                                 ; preds = %34, %31, %29, %Py_DECREF.exit33, %1
  ret i32 0
}